target datalayout = "e-m:e-p270:32:32-p271:32:32-p272:64:64-i64:64-i128:128-f80:128-n8:16:32:64-S128"
target triple = "x86_64-pc-linux-gnu"

%struct.job_array_resp_msg_t = type { i32, ptr, ptr, ptr }

@exit_code = external global i32, align 4
@quiet_flag = external global i32, align 4
@stderr = external global ptr, align 8
@.str.5 = private unnamed_addr constant [15 x i8] c"%s for job %s\0A\00", align 1
@.str.6 = private unnamed_addr constant [8 x i8] c"%s: %s\0A\00", align 1
@.str.13 = private unnamed_addr constant [7 x i8] c"jobid=\00", align 1
@.str.14 = private unnamed_addr constant [5 x i8] c"job=\00", align 1
@.str.15 = private unnamed_addr constant [8 x i8] c"suspend\00", align 1

; Function Attrs: nounwind uwtable
define dso_local void @scontrol_suspend(ptr noundef %0, ptr noundef %1) #0 {
  %3 = alloca ptr, align 8
  %4 = alloca ptr, align 8
  %5 = alloca i32, align 4
  %6 = alloca i32, align 4
  %7 = alloca ptr, align 8
  %8 = alloca ptr, align 8
  store ptr %0, ptr %3, align 8
  store ptr %1, ptr %4, align 8
  call void @llvm.lifetime.start.p0(i64 4, ptr %5) #8
  call void @llvm.lifetime.start.p0(i64 4, ptr %6) #8
  call void @llvm.lifetime.start.p0(i64 8, ptr %7) #8
  store ptr null, ptr %7, align 8
  call void @llvm.lifetime.start.p0(i64 8, ptr %8) #8
  %9 = load ptr, ptr %4, align 8
  %10 = call i32 @xstrncasecmp(ptr noundef %9, ptr noundef @.str.13, i64 noundef 6)
  %11 = icmp ne i32 %10, 0
  br i1 %11, label %15, label %12

12:                                               ; preds = %2
  %13 = load ptr, ptr %4, align 8
  %14 = getelementptr inbounds i8, ptr %13, i64 6
  store ptr %14, ptr %4, align 8
  br label %15

15:                                               ; preds = %12, %2
  %16 = load ptr, ptr %4, align 8
  %17 = call i32 @xstrncasecmp(ptr noundef %16, ptr noundef @.str.14, i64 noundef 4)
  %18 = icmp ne i32 %17, 0
  br i1 %18, label %22, label %19

19:                                               ; preds = %15
  %20 = load ptr, ptr %4, align 8
  %21 = getelementptr inbounds i8, ptr %20, i64 4
  store ptr %21, ptr %4, align 8
  br label %22

22:                                               ; preds = %19, %15
  %23 = load ptr, ptr %4, align 8
  %24 = call zeroext i1 @_is_job_id(ptr noundef %23)
  br i1 %24, label %25, label %119

25:                                               ; preds = %22
  %26 = call ptr @_next_job_id()
  store ptr %26, ptr %8, align 8
  br label %27

27:                                               ; preds = %116, %25
  %28 = load ptr, ptr %8, align 8
  %29 = icmp ne ptr %28, null
  br i1 %29, label %30, label %118

30:                                               ; preds = %27
  %31 = load ptr, ptr %3, align 8
  %32 = load ptr, ptr %3, align 8
  %33 = call i64 @strlen(ptr noundef %32) #10
  %34 = icmp ugt i64 %33, 2
  br i1 %34, label %35, label %38

35:                                               ; preds = %30
  %36 = load ptr, ptr %3, align 8
  %37 = call i64 @strlen(ptr noundef %36) #10
  br label %39

38:                                               ; preds = %30
  br label %39

39:                                               ; preds = %38, %35
  %40 = phi i64 [ %37, %35 ], [ 2, %38 ]
  %41 = call i32 @xstrncasecmp(ptr noundef %31, ptr noundef @.str.15, i64 noundef %40)
  %42 = icmp ne i32 %41, 0
  br i1 %42, label %46, label %43

43:                                               ; preds = %39
  %44 = load ptr, ptr %8, align 8
  %45 = call i32 @slurm_suspend2(ptr noundef %44, ptr noundef %7)
  store i32 %45, ptr %5, align 4
  br label %49

46:                                               ; preds = %39
  %47 = load ptr, ptr %8, align 8
  %48 = call i32 @slurm_resume2(ptr noundef %47, ptr noundef %7)
  store i32 %48, ptr %5, align 4
  br label %49

49:                                               ; preds = %46, %43
  %50 = load i32, ptr %5, align 4
  %51 = icmp ne i32 %50, 0
  br i1 %51, label %52, label %63

52:                                               ; preds = %49
  store i32 1, ptr @exit_code, align 4
  %53 = load i32, ptr @quiet_flag, align 4
  %54 = icmp ne i32 %53, 1
  br i1 %54, label %55, label %62

55:                                               ; preds = %52
  %56 = load ptr, ptr @stderr, align 8
  %57 = call ptr @__errno_location() #9
  %58 = load i32, ptr %57, align 4
  %59 = call ptr @slurm_strerror(i32 noundef %58)
  %60 = load ptr, ptr %8, align 8
  %61 = call i32 (ptr, ptr, ...) @fprintf(ptr noundef %56, ptr noundef @.str.5, ptr noundef %59, ptr noundef %60) #8
  br label %62

62:                                               ; preds = %55, %52
  br label %116

63:                                               ; preds = %49
  %64 = load ptr, ptr %7, align 8
  %65 = icmp ne ptr %64, null
  br i1 %65, label %66, label %115

66:                                               ; preds = %63
  store i32 0, ptr %6, align 4
  br label %67

67:                                               ; preds = %110, %66
  %68 = load i32, ptr %6, align 4
  %69 = load ptr, ptr %7, align 8
  %70 = getelementptr inbounds nuw %struct.job_array_resp_msg_t, ptr %69, i32 0, i32 0
  %71 = load i32, ptr %70, align 8
  %72 = icmp ult i32 %68, %71
  br i1 %72, label %73, label %113

73:                                               ; preds = %67
  %74 = load ptr, ptr %7, align 8
  %75 = getelementptr inbounds nuw %struct.job_array_resp_msg_t, ptr %74, i32 0, i32 2
  %76 = load ptr, ptr %75, align 8
  %77 = load i32, ptr %6, align 4
  %78 = sext i32 %77 to i64
  %79 = getelementptr inbounds i32, ptr %76, i64 %78
  %80 = load i32, ptr %79, align 4
  %81 = icmp eq i32 %80, 0
  br i1 %81, label %82, label %88

82:                                               ; preds = %73
  %83 = load ptr, ptr %7, align 8
  %84 = getelementptr inbounds nuw %struct.job_array_resp_msg_t, ptr %83, i32 0, i32 0
  %85 = load i32, ptr %84, align 8
  %86 = icmp eq i32 %85, 1
  br i1 %86, label %87, label %88

87:                                               ; preds = %82
  br label %110

88:                                               ; preds = %82, %73
  store i32 1, ptr @exit_code, align 4
  %89 = load i32, ptr @quiet_flag, align 4
  %90 = icmp eq i32 %89, 1
  br i1 %90, label %91, label %92

91:                                               ; preds = %88
  br label %110

92:                                               ; preds = %88
  %93 = load ptr, ptr @stderr, align 8
  %94 = load ptr, ptr %7, align 8
  %95 = getelementptr inbounds nuw %struct.job_array_resp_msg_t, ptr %94, i32 0, i32 1
  %96 = load ptr, ptr %95, align 8
  %97 = load i32, ptr %6, align 4
  %98 = sext i32 %97 to i64
  %99 = getelementptr inbounds ptr, ptr %96, i64 %98
  %100 = load ptr, ptr %99, align 8
  %101 = load ptr, ptr %7, align 8
  %102 = getelementptr inbounds nuw %struct.job_array_resp_msg_t, ptr %101, i32 0, i32 2
  %103 = load ptr, ptr %102, align 8
  %104 = load i32, ptr %6, align 4
  %105 = sext i32 %104 to i64
  %106 = getelementptr inbounds i32, ptr %103, i64 %105
  %107 = load i32, ptr %106, align 4
  %108 = call ptr @slurm_strerror(i32 noundef %107)
  %109 = call i32 (ptr, ptr, ...) @fprintf(ptr noundef %93, ptr noundef @.str.6, ptr noundef %100, ptr noundef %108) #8
  br label %110

110:                                              ; preds = %92, %91, %87
  %111 = load i32, ptr %6, align 4
  %112 = add nsw i32 %111, 1
  store i32 %112, ptr %6, align 4
  br label %67, !llvm.loop !18

113:                                              ; preds = %67
  %114 = load ptr, ptr %7, align 8
  call void @slurm_free_job_array_resp(ptr noundef %114)
  store ptr null, ptr %7, align 8
  br label %115

115:                                              ; preds = %113, %63
  br label %116

116:                                              ; preds = %115, %62
  %117 = call ptr @_next_job_id()
  store ptr %117, ptr %8, align 8
  br label %27, !llvm.loop !19

118:                                              ; preds = %27
  br label %131

119:                                              ; preds = %22
  store i32 1, ptr @exit_code, align 4
  store i32 2017, ptr %5, align 4
  %120 = load i32, ptr %5, align 4
  %121 = call ptr @__errno_location() #9
  store i32 %120, ptr %121, align 4
  %122 = load i32, ptr @quiet_flag, align 4
  %123 = icmp ne i32 %122, 1
  br i1 %123, label %124, label %130

124:                                              ; preds = %119
  %125 = load ptr, ptr @stderr, align 8
  %126 = load i32, ptr %5, align 4
  %127 = call ptr @slurm_strerror(i32 noundef %126)
  %128 = load ptr, ptr %4, align 8
  %129 = call i32 (ptr, ptr, ...) @fprintf(ptr noundef %125, ptr noundef @.str.5, ptr noundef %127, ptr noundef %128) #8
  br label %130

130:                                              ; preds = %124, %119
  br label %131

131:                                              ; preds = %130, %118
  call void @llvm.lifetime.end.p0(i64 8, ptr %8) #8
  call void @llvm.lifetime.end.p0(i64 8, ptr %7) #8
  call void @llvm.lifetime.end.p0(i64 4, ptr %6) #8
  call void @llvm.lifetime.end.p0(i64 4, ptr %5) #8
  ret void
}