; Function Attrs: nounwind uwtable
define dso_local void @scontrol_suspend(ptr noundef %0, ptr noundef %1) local_unnamed_addr #0 {
  %3 = alloca ptr, align 8
  call void @llvm.lifetime.start.p0(i64 8, ptr nonnull %3) #13
  store ptr null, ptr %3, align 8
  %4 = tail call i32 @xstrncasecmp(ptr noundef %1, ptr noundef nonnull @.str.13, i64 noundef 6) #13
  %.not = icmp eq i32 %4, 0
  %spec.select.idx = select i1 %.not, i64 6, i64 0
  %spec.select = getelementptr inbounds nuw i8, ptr %1, i64 %spec.select.idx
  %5 = tail call i32 @xstrncasecmp(ptr noundef %spec.select, ptr noundef nonnull @.str.14, i64 noundef 4) #13
  %.not25 = icmp eq i32 %5, 0
  %.1.idx = select i1 %.not25, i64 4, i64 0
  %.1 = getelementptr inbounds nuw i8, ptr %spec.select, i64 %.1.idx
  %6 = tail call fastcc zeroext i1 @_is_job_id(ptr noundef %.1)
  br i1 %6, label %7, label %54

7:                                                ; preds = %2
  %8 = tail call fastcc ptr @_next_job_id()
  %.not2734 = icmp eq ptr %8, null
  br i1 %.not2734, label %.loopexit, label %.lr.ph37

.lr.ph37:                                         ; preds = %7, %52
  %.035 = phi ptr [ %53, %52 ], [ %8, %7 ]
  %9 = call i64 @strlen(ptr noundef nonnull dereferenceable(1) %0) #16
  %spec.select32 = call i64 @llvm.umax.i64(i64 %9, i64 2)
  %10 = call i32 @xstrncasecmp(ptr noundef nonnull %0, ptr noundef nonnull @.str.15, i64 noundef %spec.select32) #13
  %.not28 = icmp eq i32 %10, 0
  br i1 %.not28, label %11, label %13

11:                                               ; preds = %.lr.ph37
  %12 = call i32 @slurm_suspend2(ptr noundef nonnull %.035, ptr noundef nonnull %3) #13
  br label %15

13:                                               ; preds = %.lr.ph37
  %14 = call i32 @slurm_resume2(ptr noundef nonnull %.035, ptr noundef nonnull %3) #13
  br label %15

15:                                               ; preds = %13, %11
  %.021 = phi i32 [ %14, %13 ], [ %12, %11 ]
  %.not29 = icmp eq i32 %.021, 0
  br i1 %.not29, label %24, label %16

16:                                               ; preds = %15
  store i32 1, ptr @exit_code, align 4
  %17 = load i32, ptr @quiet_flag, align 4
  %.not31 = icmp eq i32 %17, 1
  br i1 %.not31, label %52, label %18

18:                                               ; preds = %16
  %19 = load ptr, ptr @stderr, align 8
  %20 = tail call ptr @__errno_location() #14
  %21 = load i32, ptr %20, align 4
  %22 = call ptr @slurm_strerror(i32 noundef %21) #13
  %23 = call i32 (ptr, ptr, ...) @fprintf(ptr noundef %19, ptr noundef nonnull @.str.5, ptr noundef %22, ptr noundef nonnull %.035) #15
  br label %52

24:                                               ; preds = %15
  %25 = load ptr, ptr %3, align 8
  %.not30 = icmp eq ptr %25, null
  br i1 %.not30, label %52, label %.preheader

.preheader:                                       ; preds = %24
  %26 = load i32, ptr %25, align 8
  %.not38 = icmp eq i32 %26, 0
  br i1 %.not38, label %._crit_edge, label %.lr.ph

.lr.ph:                                           ; preds = %.preheader, %47
  %27 = phi ptr [ %48, %47 ], [ %25, %.preheader ]
  %indvars.iv = phi i64 [ %indvars.iv.next, %47 ], [ 0, %.preheader ]
  %28 = phi i32 [ %49, %47 ], [ %26, %.preheader ]
  %29 = getelementptr inbounds nuw i8, ptr %27, i64 16
  %30 = load ptr, ptr %29, align 8
  %31 = getelementptr inbounds nuw i32, ptr %30, i64 %indvars.iv
  %32 = load i32, ptr %31, align 4
  %33 = icmp eq i32 %32, 0
  %34 = icmp eq i32 %28, 1
  %or.cond = and i1 %34, %33
  br i1 %or.cond, label %47, label %35

35:                                               ; preds = %.lr.ph
  store i32 1, ptr @exit_code, align 4
  %36 = load i32, ptr @quiet_flag, align 4
  %37 = icmp eq i32 %36, 1
  br i1 %37, label %47, label %38

38:                                               ; preds = %35
  %39 = load ptr, ptr @stderr, align 8
  %40 = getelementptr inbounds nuw i8, ptr %27, i64 8
  %41 = load ptr, ptr %40, align 8
  %42 = getelementptr inbounds nuw ptr, ptr %41, i64 %indvars.iv
  %43 = load ptr, ptr %42, align 8
  %44 = load i32, ptr %31, align 4
  %45 = call ptr @slurm_strerror(i32 noundef %44) #13
  %46 = call i32 (ptr, ptr, ...) @fprintf(ptr noundef %39, ptr noundef nonnull @.str.6, ptr noundef %43, ptr noundef %45) #15
  %.pre = load ptr, ptr %3, align 8
  br label %47

47:                                               ; preds = %.lr.ph, %35, %38
  %48 = phi ptr [ %27, %.lr.ph ], [ %27, %35 ], [ %.pre, %38 ]
  %indvars.iv.next = add nuw nsw i64 %indvars.iv, 1
  %49 = load i32, ptr %48, align 8
  %50 = zext i32 %49 to i64
  %51 = icmp samesign ult i64 %indvars.iv.next, %50
  br i1 %51, label %.lr.ph, label %._crit_edge, !llvm.loop !16

._crit_edge:                                      ; preds = %47, %.preheader
  %.lcssa = phi ptr [ %25, %.preheader ], [ %48, %47 ]
  call void @slurm_free_job_array_resp(ptr noundef nonnull %.lcssa) #13
  store ptr null, ptr %3, align 8
  br label %52

52:                                               ; preds = %24, %._crit_edge, %16, %18
  %53 = call fastcc ptr @_next_job_id()
  %.not27 = icmp eq ptr %53, null
  br i1 %.not27, label %.loopexit, label %.lr.ph37, !llvm.loop !17

54:                                               ; preds = %2
  store i32 1, ptr @exit_code, align 4
  %55 = tail call ptr @__errno_location() #14
  store i32 2017, ptr %55, align 4
  %56 = load i32, ptr @quiet_flag, align 4
  %.not26 = icmp eq i32 %56, 1
  br i1 %.not26, label %.loopexit, label %57

57:                                               ; preds = %54
  %58 = load ptr, ptr @stderr, align 8
  %59 = tail call ptr @slurm_strerror(i32 noundef 2017) #13
  %60 = tail call i32 (ptr, ptr, ...) @fprintf(ptr noundef %58, ptr noundef nonnull @.str.5, ptr noundef %59, ptr noundef %.1) #15
  br label %.loopexit

.loopexit:                                        ; preds = %52, %7, %54, %57
  call void @llvm.lifetime.end.p0(i64 8, ptr nonnull %3) #13
  ret void
}